target datalayout = "e-m:e-p270:32:32-p271:32:32-p272:64:64-i64:64-i128:128-f80:128-n8:16:32:64-S128"
target triple = "x86_64-pc-linux-gnu"

@.str.3 = private unnamed_addr constant [2 x i8] c"\0A\00", align 1
@.str.4 = private unnamed_addr constant [35 x i8] c"    opt_lut [options] [selection]\0A\00", align 1
@.str.5 = private unnamed_addr constant [60 x i8] c"This pass combines cascaded $lut cells with unused inputs.\0A\00", align 1
@.str.6 = private unnamed_addr constant [14 x i8] c"\09-tech ice40\0A\00", align 1
@.str.7 = private unnamed_addr constant [77 x i8] c"        treat the design as a LUT-mapped circuit for the iCE40 architecture\0A\00", align 1
@.str.8 = private unnamed_addr constant [61 x i8] c"        and preserve connections to SB_CARRY as appropriate\0A\00", align 1
@.str.9 = private unnamed_addr constant [14 x i8] c"    -limit N\0A\00", align 1
@.str.10 = private unnamed_addr constant [77 x i8] c"        only perform the first N combines, then stop. useful for debugging.\0A\00", align 1

; Function Attrs: mustprogress uwtable
define internal void @_ZN12_GLOBAL__N_110OptLutPass4helpEv(ptr noundef nonnull align 8 dereferenceable(104) %0) unnamed_addr #4 align 2 {
  %2 = alloca ptr, align 8
  store ptr %0, ptr %2, align 8
  call void (ptr, ...) @_ZN5Yosys3logEPKcz(ptr noundef @.str.3)
  call void (ptr, ...) @_ZN5Yosys3logEPKcz(ptr noundef @.str.4)
  call void (ptr, ...) @_ZN5Yosys3logEPKcz(ptr noundef @.str.3)
  call void (ptr, ...) @_ZN5Yosys3logEPKcz(ptr noundef @.str.5)
  call void (ptr, ...) @_ZN5Yosys3logEPKcz(ptr noundef @.str.3)
  call void (ptr, ...) @_ZN5Yosys3logEPKcz(ptr noundef @.str.6)
  call void (ptr, ...) @_ZN5Yosys3logEPKcz(ptr noundef @.str.7)
  call void (ptr, ...) @_ZN5Yosys3logEPKcz(ptr noundef @.str.8)
  call void (ptr, ...) @_ZN5Yosys3logEPKcz(ptr noundef @.str.3)
  call void (ptr, ...) @_ZN5Yosys3logEPKcz(ptr noundef @.str.9)
  call void (ptr, ...) @_ZN5Yosys3logEPKcz(ptr noundef @.str.10)
  call void (ptr, ...) @_ZN5Yosys3logEPKcz(ptr noundef @.str.3)
  ret void
}